; ModuleID = '38/866.c'
source_filename = "38/866.c"
target datalayout = "e-m:e-p270:32:32-p271:32:32-p272:64:64-i64:64-f80:128-n8:16:32:64-S128"
target triple = "x86_64-pc-linux-gnu"

@.str = private unnamed_addr constant [3 x i8] c"%d\00", align 1
@.str.1 = private unnamed_addr constant [4 x i8] c"%d\0A\00", align 1
@.str.2 = private unnamed_addr constant [4 x i8] c"%lf\00", align 1
@.str.3 = private unnamed_addr constant [7 x i8] c"%.5lf\0A\00", align 1

; Function Attrs: noinline nounwind uwtable
define dso_local i32 @main() #0 {
  %1 = alloca i32, align 4
  %2 = alloca i32, align 4
  %3 = alloca [200 x double], align 16
  %4 = alloca double, align 8
  %5 = alloca double, align 8
  %6 = alloca double, align 8
  %7 = alloca i32, align 4
  %8 = alloca double, align 8
  %9 = alloca double, align 8
  %10 = alloca i32, align 4
  %11 = alloca i32, align 4
  %12 = alloca i32, align 4
  store i32 0, i32* %1, align 4
  store double 0.000000e+00, double* %4, align 8
  store double 0.000000e+00, double* %5, align 8
  store double 0.000000e+00, double* %6, align 8
  %13 = call i32 (i8*, ...) @__isoc99_scanf(i8* getelementptr inbounds ([3 x i8], [3 x i8]* @.str, i64 0, i64 0), i32* %2)
  store i32 0, i32* %7, align 4
  br label %14

14:                                               ; preds = %70, %0
  %15 = load i32, i32* %7, align 4
  %16 = load i32, i32* %2, align 4
  %17 = icmp slt i32 %15, %16
  br i1 %17, label %18, label %73

18:                                               ; preds = %14
  store double 0.000000e+00, double* %8, align 8
  store double 0.000000e+00, double* %9, align 8
  %19 = call i32 (i8*, ...) @__isoc99_scanf(i8* getelementptr inbounds ([4 x i8], [4 x i8]* @.str.1, i64 0, i64 0), i32* %10)
  store i32 0, i32* %11, align 4
  br label %20

20:                                               ; preds = %35, %18
  %21 = load i32, i32* %11, align 4
  %22 = load i32, i32* %10, align 4
  %23 = icmp slt i32 %21, %22
  br i1 %23, label %24, label %38

24:                                               ; preds = %20
  %25 = load i32, i32* %11, align 4
  %26 = sext i32 %25 to i64
  %27 = getelementptr inbounds [200 x double], [200 x double]* %3, i64 0, i64 %26
  %28 = call i32 (i8*, ...) @__isoc99_scanf(i8* getelementptr inbounds ([4 x i8], [4 x i8]* @.str.2, i64 0, i64 0), double* %27)
  %29 = load i32, i32* %11, align 4
  %30 = sext i32 %29 to i64
  %31 = getelementptr inbounds [200 x double], [200 x double]* %3, i64 0, i64 %30
  %32 = load double, double* %31, align 8
  %33 = load double, double* %8, align 8
  %34 = fadd double %33, %32
  store double %34, double* %8, align 8
  br label %35

35:                                               ; preds = %24
  %36 = load i32, i32* %11, align 4
  %37 = add nsw i32 %36, 1
  store i32 %37, i32* %11, align 4
  br label %20

38:                                               ; preds = %20
  %39 = load double, double* %8, align 8
  %40 = load i32, i32* %10, align 4
  %41 = sitofp i32 %40 to double
  %42 = fdiv double %39, %41
  store double %42, double* %6, align 8
  store i32 0, i32* %12, align 4
  br label %43

43:                                               ; preds = %58, %38
  %44 = load i32, i32* %12, align 4
  %45 = load i32, i32* %10, align 4
  %46 = icmp slt i32 %44, %45
  br i1 %46, label %47, label %61

47:                                               ; preds = %43
  %48 = load i32, i32* %12, align 4
  %49 = sext i32 %48 to i64
  %50 = getelementptr inbounds [200 x double], [200 x double]* %3, i64 0, i64 %49
  %51 = load double, double* %50, align 8
  %52 = load double, double* %6, align 8
  %53 = fsub double %51, %52
  %54 = call double @pow(double %53, double 2.000000e+00) #3
  store double %54, double* %4, align 8
  %55 = load double, double* %4, align 8
  %56 = load double, double* %9, align 8
  %57 = fadd double %56, %55
  store double %57, double* %9, align 8
  br label %58

58:                                               ; preds = %47
  %59 = load i32, i32* %12, align 4
  %60 = add nsw i32 %59, 1
  store i32 %60, i32* %12, align 4
  br label %43

61:                                               ; preds = %43
  %62 = load double, double* %9, align 8
  %63 = load i32, i32* %10, align 4
  %64 = sitofp i32 %63 to double
  %65 = fdiv double %62, %64
  store double %65, double* %5, align 8
  %66 = load double, double* %5, align 8
  %67 = call double @pow(double %66, double 5.000000e-01) #3
  store double %67, double* %5, align 8
  %68 = load double, double* %5, align 8
  %69 = call i32 (i8*, ...) @printf(i8* getelementptr inbounds ([7 x i8], [7 x i8]* @.str.3, i64 0, i64 0), double %68)
  br label %70

70:                                               ; preds = %61
  %71 = load i32, i32* %7, align 4
  %72 = add nsw i32 %71, 1
  store i32 %72, i32* %7, align 4
  br label %14

73:                                               ; preds = %14
  ret i32 0
}

declare dso_local i32 @__isoc99_scanf(i8*, ...) #1

; Function Attrs: nounwind
declare dso_local double @pow(double, double) #2

declare dso_local i32 @printf(i8*, ...) #1


!llvm.module.flags = !{!0}
!llvm.ident = !{!1}

!0 = !{i32 1, !"wchar_size", i32 4}
!1 = !{!"clang version 10.0.0-4ubuntu1 "}
